; Function Attrs: nounwind uwtable
define internal fastcc i32 @r_step2b(ptr noundef initializes((24, 28)) %0) unnamed_addr #0 {
  %2 = getelementptr inbounds nuw i8, ptr %0, i64 8
  %3 = load i32, ptr %2, align 8
  %4 = getelementptr inbounds nuw i8, ptr %0, i64 24
  store i32 %3, ptr %4, align 8
  %5 = add i32 %3, -7
  %6 = getelementptr inbounds nuw i8, ptr %0, i64 16
  %7 = load i32, ptr %6, align 8
  %.not = icmp sgt i32 %5, %7
  br i1 %.not, label %8, label %36

8:                                                ; preds = %1
  %9 = load ptr, ptr %0, align 8
  %10 = add i32 %3, -1
  %11 = sext i32 %10 to i64
  %12 = getelementptr inbounds i8, ptr %9, i64 %11
  %13 = load i8, ptr %12, align 1
  switch i8 %13, label %36 [
    i8 -125, label %14
    i8 -67, label %14
  ]

14:                                               ; preds = %8, %8
  %15 = tail call i32 @find_among_b(ptr noundef nonnull %0, ptr noundef nonnull @a_26, i32 noundef 2) #2
  %.not37 = icmp eq i32 %15, 0
  br i1 %.not37, label %36, label %16

16:                                               ; preds = %14
  %17 = load i32, ptr %2, align 8
  %18 = getelementptr inbounds nuw i8, ptr %0, i64 20
  store i32 %17, ptr %18, align 4
  %19 = tail call i32 @slice_del(ptr noundef nonnull %0) #2
  %20 = icmp sgt i32 %19, -1
  br i1 %20, label %21, label %36

21:                                               ; preds = %16
  %22 = load i32, ptr %2, align 8
  store i32 %22, ptr %4, align 8
  store i32 %22, ptr %18, align 4
  %23 = add i32 %22, -3
  %24 = load i32, ptr %6, align 8
  %.not38 = icmp sgt i32 %23, %24
  br i1 %.not38, label %25, label %36

25:                                               ; preds = %21
  %26 = load ptr, ptr %0, align 8
  %27 = add i32 %22, -1
  %28 = sext i32 %27 to i64
  %29 = getelementptr inbounds i8, ptr %26, i64 %28
  %30 = load i8, ptr %29, align 1
  switch i8 %30, label %36 [
    i8 -128, label %31
    i8 -69, label %31
  ]

31:                                               ; preds = %25, %25
  %32 = tail call i32 @find_among_b(ptr noundef nonnull %0, ptr noundef nonnull @a_27, i32 noundef 8) #2
  %.not41 = icmp eq i32 %32, 0
  br i1 %.not41, label %36, label %33

33:                                               ; preds = %31
  %34 = tail call i32 @slice_from_s(ptr noundef nonnull %0, i32 noundef 4, ptr noundef nonnull @s_66) #2
  %35 = icmp sgt i32 %34, -1
  %spec.select = select i1 %35, i32 1, i32 %34
  br label %36

36:                                               ; preds = %33, %16, %31, %21, %25, %14, %1, %8
  %.0 = phi i32 [ %19, %16 ], [ 0, %8 ], [ 0, %1 ], [ 0, %14 ], [ 0, %25 ], [ 0, %21 ], [ 0, %31 ], [ %spec.select, %33 ]
  ret i32 %.0
}